; Function Attrs: mustprogress nofree norecurse nosync nounwind willreturn memory(read, inaccessiblemem: none) uwtable
define hidden noundef zeroext i1 @_ZNK4cvc58internal8Sequence9hasSuffixERKS1_(ptr noundef nonnull readonly align 8 captures(none) dereferenceable(32) %0, ptr noundef nonnull readonly align 8 captures(none) dereferenceable(32) %1) local_unnamed_addr #9 align 2 {
  %3 = getelementptr inbounds nuw i8, ptr %0, i64 8
  %4 = getelementptr inbounds nuw i8, ptr %0, i64 16
  %5 = load ptr, ptr %4, align 8, !tbaa !13
  %6 = load ptr, ptr %3, align 8, !tbaa !16
  %7 = ptrtoint ptr %5 to i64
  %8 = ptrtoint ptr %6 to i64
  %9 = sub i64 %7, %8
  %10 = ashr exact i64 %9, 3
  %11 = getelementptr inbounds nuw i8, ptr %1, i64 8
  %12 = getelementptr inbounds nuw i8, ptr %1, i64 16
  %13 = load ptr, ptr %12, align 8, !tbaa !13
  %14 = load ptr, ptr %11, align 8, !tbaa !16
  %15 = ptrtoint ptr %13 to i64
  %16 = ptrtoint ptr %14 to i64
  %17 = sub i64 %15, %16
  %18 = ashr exact i64 %17, 3
  %19 = icmp ugt i64 %18, %10
  br i1 %19, label %.critedge, label %20

20:                                               ; preds = %2
  %21 = sub nuw nsw i64 %10, %18
  %invariant.gep = getelementptr %"class.cvc5::internal::NodeTemplate", ptr %6, i64 %21
  %.not.not18.not = icmp eq ptr %13, %14
  br i1 %.not.not18.not, label %.critedge, label %.lr.ph.preheader

.lr.ph.preheader:                                 ; preds = %20
  %umax = tail call i64 @llvm.umax.i64(i64 %18, i64 1)
  br label %.lr.ph

.lr.ph:                                           ; preds = %.lr.ph, %.lr.ph.preheader
  %.019 = phi i64 [ 0, %.lr.ph.preheader ], [ %25, %.lr.ph ]
  %gep = getelementptr %"class.cvc5::internal::NodeTemplate", ptr %invariant.gep, i64 %.019
  %22 = getelementptr inbounds nuw %"class.cvc5::internal::NodeTemplate", ptr %14, i64 %.019
  %23 = load ptr, ptr %gep, align 8, !tbaa !19
  %24 = load ptr, ptr %22, align 8, !tbaa !19
  %.not = icmp eq ptr %23, %24
  %25 = add nuw i64 %.019, 1
  %exitcond.not = icmp ne i64 %25, %umax
  %or.cond.not = select i1 %.not, i1 %exitcond.not, i1 false
  br i1 %or.cond.not, label %.lr.ph, label %.critedge, !llvm.loop !45

.critedge:                                        ; preds = %.lr.ph, %20, %2
  %.014 = phi i1 [ false, %2 ], [ true, %20 ], [ %.not, %.lr.ph ]
  ret i1 %.014
}